; Function Attrs: nounwind sspstrong uwtable
define internal i64 @ancillary_s_ipv6_pktinfo(i64 %0, i64 noundef %1, i64 noundef %2) #0 {
  %4 = alloca i64, align 8
  %5 = alloca i64, align 8
  %6 = alloca %struct.in6_pktinfo, align 4
  store i64 %1, ptr %5, align 8, !tbaa !6
  call void @llvm.lifetime.start.p0(i64 20, ptr nonnull %6) #10
  %7 = call i64 @rsock_sockaddr_string_value(ptr noundef nonnull %5) #10
  %8 = call i64 @rb_num2uint(i64 noundef %2) #10
  %9 = load i64, ptr %5, align 8, !tbaa !6
  %10 = inttoptr i64 %9 to ptr
  %11 = getelementptr inbounds nuw i8, ptr %10, i64 16
  %12 = load i64, ptr %11, align 8, !tbaa !19
  %.not = icmp eq i64 %12, 28
  br i1 %.not, label %15, label %13

13:                                               ; preds = %3
  %14 = load i64, ptr @rb_eArgError, align 8, !tbaa !6
  call void (i64, ptr, ...) @rb_raise(i64 noundef %14, ptr noundef nonnull @.str.64) #12
  unreachable

15:                                               ; preds = %3
  %16 = load i64, ptr %10, align 8, !tbaa !15, !noalias !135
  %17 = and i64 %16, 8192
  %.not.i.i = icmp eq i64 %17, 0
  %18 = getelementptr inbounds nuw i8, ptr %10, i64 24
  br i1 %.not.i.i, label %RSTRING_PTR.exit, label %19

19:                                               ; preds = %15
  %.sroa.2.0.copyload.i = load ptr, ptr %18, align 8
  br label %RSTRING_PTR.exit

RSTRING_PTR.exit:                                 ; preds = %15, %19
  %.sroa.2.0.i = phi ptr [ %.sroa.2.0.copyload.i, %19 ], [ %18, %15 ]
  %.sroa.0.0.copyload = load i16, ptr %.sroa.2.0.i, align 1
  %.not2 = icmp eq i16 %.sroa.0.0.copyload, 10
  br i1 %.not2, label %22, label %20

20:                                               ; preds = %RSTRING_PTR.exit
  %21 = load i64, ptr @rb_eArgError, align 8, !tbaa !6
  call void (i64, ptr, ...) @rb_raise(i64 noundef %21, ptr noundef nonnull @.str.65) #12
  unreachable

22:                                               ; preds = %RSTRING_PTR.exit
  %23 = trunc i64 %8 to i32
  %24 = getelementptr inbounds nuw i8, ptr %.sroa.2.0.i, i64 8
  call void @llvm.memcpy.p0.p0.i64(ptr noundef nonnull align 4 dereferenceable(16) %6, ptr noundef nonnull align 1 dereferenceable(16) %24, i64 16, i1 false)
  %25 = getelementptr inbounds nuw i8, ptr %6, i64 16
  store i32 %23, ptr %25, align 4, !tbaa !138
  %26 = call i64 @rb_str_new(ptr noundef nonnull %6, i64 noundef 20) #10
  call void @llvm.lifetime.start.p0(i64 8, ptr nonnull %4)
  store i64 %26, ptr %4, align 8, !tbaa !6
  %27 = load i64, ptr @rb_cAncillaryData, align 8, !tbaa !6
  %28 = call i64 @rb_obj_alloc(i64 noundef %27) #10
  %29 = call i64 @rb_string_value(ptr noundef nonnull %4) #10
  %30 = load i64, ptr %4, align 8, !tbaa !6
  %31 = call i64 @ancillary_initialize(i64 noundef %28, i64 noundef 21, i64 noundef 83, i64 noundef 101, i64 noundef %30)
  call void @llvm.lifetime.end.p0(i64 8, ptr nonnull %4)
  call void @llvm.lifetime.end.p0(i64 20, ptr nonnull %6) #10
  ret i64 %28
}